target datalayout = "e-m:e-p270:32:32-p271:32:32-p272:64:64-i64:64-i128:128-f80:128-n8:16:32:64-S128"
target triple = "x86_64-pc-linux-gnu"

%struct.jpeg_decompress_struct = type { ptr, ptr, ptr, ptr, i32, i32, ptr, i32, i32, i32, i32, i32, i32, i32, double, i32, i32, i32, i32, i32, i32, i32, i32, i32, i32, i32, i32, i32, i32, i32, i32, i32, i32, ptr, i32, i32, i32, i32, i32, ptr, [4 x ptr], [4 x ptr], [4 x ptr], i32, ptr, i32, i32, [16 x i8], [16 x i8], [16 x i8], i32, i32, i8, i8, i8, i16, i16, i32, i8, i32, ptr, i32, i32, i32, i32, ptr, i32, [4 x ptr], i32, i32, i32, [10 x i32], i32, i32, i32, i32, i32, ptr, ptr, ptr, ptr, ptr, ptr, ptr, ptr, ptr, ptr, ptr }
%struct.jpeg_memory_mgr = type { ptr, ptr, ptr, ptr, ptr, ptr, ptr, ptr, ptr, ptr, ptr, i64, i64 }
%struct.my_coef_controller = type { %struct.jpeg_d_coef_controller, i32, i32, i32, [10 x ptr], [10 x ptr], ptr }
%struct.jpeg_d_coef_controller = type { ptr, ptr, ptr, ptr, ptr }
%struct.jpeg_component_info = type { i32, i32, i32, i32, i32, i32, i32, i32, i32, i32, i32, i32, i32, i32, i32, i32, i32, i32, i32, ptr, ptr }
%struct.JQUANT_TBL = type { [64 x i16], i32 }

; Function Attrs: nounwind uwtable
define internal i32 @smoothing_ok(ptr noundef %0) #0 {
  %2 = alloca i32, align 4
  %3 = alloca ptr, align 8
  %4 = alloca ptr, align 8
  %5 = alloca i32, align 4
  %6 = alloca i32, align 4
  %7 = alloca i32, align 4
  %8 = alloca ptr, align 8
  %9 = alloca ptr, align 8
  %10 = alloca ptr, align 8
  %11 = alloca ptr, align 8
  store ptr %0, ptr %3, align 8
  %12 = load ptr, ptr %3, align 8
  %13 = getelementptr inbounds %struct.jpeg_decompress_struct, ptr %12, i32 0, i32 79
  %14 = load ptr, ptr %13, align 8
  store ptr %14, ptr %4, align 8
  store i32 0, ptr %5, align 4
  %15 = load ptr, ptr %3, align 8
  %16 = getelementptr inbounds %struct.jpeg_decompress_struct, ptr %15, i32 0, i32 45
  %17 = load i32, ptr %16, align 8
  %18 = icmp ne i32 %17, 0
  br i1 %18, label %19, label %24

19:                                               ; preds = %1
  %20 = load ptr, ptr %3, align 8
  %21 = getelementptr inbounds %struct.jpeg_decompress_struct, ptr %20, i32 0, i32 39
  %22 = load ptr, ptr %21, align 8
  %23 = icmp eq ptr %22, null
  br i1 %23, label %24, label %25

24:                                               ; preds = %19, %1
  store i32 0, ptr %2, align 4
  br label %155

25:                                               ; preds = %19
  %26 = load ptr, ptr %4, align 8
  %27 = getelementptr inbounds %struct.my_coef_controller, ptr %26, i32 0, i32 6
  %28 = load ptr, ptr %27, align 8
  %29 = icmp eq ptr %28, null
  br i1 %29, label %30, label %45

30:                                               ; preds = %25
  %31 = load ptr, ptr %3, align 8
  %32 = getelementptr inbounds %struct.jpeg_decompress_struct, ptr %31, i32 0, i32 1
  %33 = load ptr, ptr %32, align 8
  %34 = getelementptr inbounds %struct.jpeg_memory_mgr, ptr %33, i32 0, i32 0
  %35 = load ptr, ptr %34, align 8
  %36 = load ptr, ptr %3, align 8
  %37 = load ptr, ptr %3, align 8
  %38 = getelementptr inbounds %struct.jpeg_decompress_struct, ptr %37, i32 0, i32 9
  %39 = load i32, ptr %38, align 8
  %40 = sext i32 %39 to i64
  %41 = mul i64 %40, 24
  %42 = call ptr %35(ptr noundef %36, i32 noundef 1, i64 noundef %41)
  %43 = load ptr, ptr %4, align 8
  %44 = getelementptr inbounds %struct.my_coef_controller, ptr %43, i32 0, i32 6
  store ptr %42, ptr %44, align 8
  br label %45

45:                                               ; preds = %30, %25
  %46 = load ptr, ptr %4, align 8
  %47 = getelementptr inbounds %struct.my_coef_controller, ptr %46, i32 0, i32 6
  %48 = load ptr, ptr %47, align 8
  store ptr %48, ptr %11, align 8
  store i32 0, ptr %6, align 4
  %49 = load ptr, ptr %3, align 8
  %50 = getelementptr inbounds %struct.jpeg_decompress_struct, ptr %49, i32 0, i32 44
  %51 = load ptr, ptr %50, align 8
  store ptr %51, ptr %8, align 8
  br label %52

52:                                               ; preds = %148, %45
  %53 = load i32, ptr %6, align 4
  %54 = load ptr, ptr %3, align 8
  %55 = getelementptr inbounds %struct.jpeg_decompress_struct, ptr %54, i32 0, i32 9
  %56 = load i32, ptr %55, align 8
  %57 = icmp slt i32 %53, %56
  br i1 %57, label %58, label %153

58:                                               ; preds = %52
  %59 = load ptr, ptr %8, align 8
  %60 = getelementptr inbounds %struct.jpeg_component_info, ptr %59, i32 0, i32 19
  %61 = load ptr, ptr %60, align 8
  store ptr %61, ptr %9, align 8
  %62 = icmp eq ptr %61, null
  br i1 %62, label %63, label %64

63:                                               ; preds = %58
  store i32 0, ptr %2, align 4
  br label %155

64:                                               ; preds = %58
  %65 = load ptr, ptr %9, align 8
  %66 = getelementptr inbounds %struct.JQUANT_TBL, ptr %65, i32 0, i32 0
  %67 = getelementptr inbounds [64 x i16], ptr %66, i64 0, i64 0
  %68 = load i16, ptr %67, align 4
  %69 = zext i16 %68 to i32
  %70 = icmp eq i32 %69, 0
  br i1 %70, label %106, label %71

71:                                               ; preds = %64
  %72 = load ptr, ptr %9, align 8
  %73 = getelementptr inbounds %struct.JQUANT_TBL, ptr %72, i32 0, i32 0
  %74 = getelementptr inbounds [64 x i16], ptr %73, i64 0, i64 1
  %75 = load i16, ptr %74, align 2
  %76 = zext i16 %75 to i32
  %77 = icmp eq i32 %76, 0
  br i1 %77, label %106, label %78

78:                                               ; preds = %71
  %79 = load ptr, ptr %9, align 8
  %80 = getelementptr inbounds %struct.JQUANT_TBL, ptr %79, i32 0, i32 0
  %81 = getelementptr inbounds [64 x i16], ptr %80, i64 0, i64 8
  %82 = load i16, ptr %81, align 4
  %83 = zext i16 %82 to i32
  %84 = icmp eq i32 %83, 0
  br i1 %84, label %106, label %85

85:                                               ; preds = %78
  %86 = load ptr, ptr %9, align 8
  %87 = getelementptr inbounds %struct.JQUANT_TBL, ptr %86, i32 0, i32 0
  %88 = getelementptr inbounds [64 x i16], ptr %87, i64 0, i64 16
  %89 = load i16, ptr %88, align 4
  %90 = zext i16 %89 to i32
  %91 = icmp eq i32 %90, 0
  br i1 %91, label %106, label %92

92:                                               ; preds = %85
  %93 = load ptr, ptr %9, align 8
  %94 = getelementptr inbounds %struct.JQUANT_TBL, ptr %93, i32 0, i32 0
  %95 = getelementptr inbounds [64 x i16], ptr %94, i64 0, i64 9
  %96 = load i16, ptr %95, align 2
  %97 = zext i16 %96 to i32
  %98 = icmp eq i32 %97, 0
  br i1 %98, label %106, label %99

99:                                               ; preds = %92
  %100 = load ptr, ptr %9, align 8
  %101 = getelementptr inbounds %struct.JQUANT_TBL, ptr %100, i32 0, i32 0
  %102 = getelementptr inbounds [64 x i16], ptr %101, i64 0, i64 2
  %103 = load i16, ptr %102, align 4
  %104 = zext i16 %103 to i32
  %105 = icmp eq i32 %104, 0
  br i1 %105, label %106, label %107

106:                                              ; preds = %99, %92, %85, %78, %71, %64
  store i32 0, ptr %2, align 4
  br label %155

107:                                              ; preds = %99
  %108 = load ptr, ptr %3, align 8
  %109 = getelementptr inbounds %struct.jpeg_decompress_struct, ptr %108, i32 0, i32 39
  %110 = load ptr, ptr %109, align 8
  %111 = load i32, ptr %6, align 4
  %112 = sext i32 %111 to i64
  %113 = getelementptr inbounds [64 x i32], ptr %110, i64 %112
  %114 = getelementptr inbounds [64 x i32], ptr %113, i64 0, i64 0
  store ptr %114, ptr %10, align 8
  %115 = load ptr, ptr %10, align 8
  %116 = getelementptr inbounds i32, ptr %115, i64 0
  %117 = load i32, ptr %116, align 4
  %118 = icmp slt i32 %117, 0
  br i1 %118, label %119, label %120

119:                                              ; preds = %107
  store i32 0, ptr %2, align 4
  br label %155

120:                                              ; preds = %107
  store i32 1, ptr %7, align 4
  br label %121

121:                                              ; preds = %142, %120
  %122 = load i32, ptr %7, align 4
  %123 = icmp sle i32 %122, 5
  br i1 %123, label %124, label %145

124:                                              ; preds = %121
  %125 = load ptr, ptr %10, align 8
  %126 = load i32, ptr %7, align 4
  %127 = sext i32 %126 to i64
  %128 = getelementptr inbounds i32, ptr %125, i64 %127
  %129 = load i32, ptr %128, align 4
  %130 = load ptr, ptr %11, align 8
  %131 = load i32, ptr %7, align 4
  %132 = sext i32 %131 to i64
  %133 = getelementptr inbounds i32, ptr %130, i64 %132
  store i32 %129, ptr %133, align 4
  %134 = load ptr, ptr %10, align 8
  %135 = load i32, ptr %7, align 4
  %136 = sext i32 %135 to i64
  %137 = getelementptr inbounds i32, ptr %134, i64 %136
  %138 = load i32, ptr %137, align 4
  %139 = icmp ne i32 %138, 0
  br i1 %139, label %140, label %141

140:                                              ; preds = %124
  store i32 1, ptr %5, align 4
  br label %141

141:                                              ; preds = %140, %124
  br label %142

142:                                              ; preds = %141
  %143 = load i32, ptr %7, align 4
  %144 = add nsw i32 %143, 1
  store i32 %144, ptr %7, align 4
  br label %121, !llvm.loop !24

145:                                              ; preds = %121
  %146 = load ptr, ptr %11, align 8
  %147 = getelementptr inbounds i32, ptr %146, i64 6
  store ptr %147, ptr %11, align 8
  br label %148

148:                                              ; preds = %145
  %149 = load i32, ptr %6, align 4
  %150 = add nsw i32 %149, 1
  store i32 %150, ptr %6, align 4
  %151 = load ptr, ptr %8, align 8
  %152 = getelementptr inbounds %struct.jpeg_component_info, ptr %151, i32 1
  store ptr %152, ptr %8, align 8
  br label %52, !llvm.loop !25

153:                                              ; preds = %52
  %154 = load i32, ptr %5, align 4
  store i32 %154, ptr %2, align 4
  br label %155

155:                                              ; preds = %153, %119, %106, %63, %24
  %156 = load i32, ptr %2, align 4
  ret i32 %156
}

; Function Attrs: nounwind uwtable
define internal void @start_output_pass(ptr noundef %0) #0 {
  %2 = alloca ptr, align 8
  %3 = alloca ptr, align 8
  store ptr %0, ptr %2, align 8
  %4 = load ptr, ptr %2, align 8
  %5 = getelementptr inbounds %struct.jpeg_decompress_struct, ptr %4, i32 0, i32 79
  %6 = load ptr, ptr %5, align 8
  store ptr %6, ptr %3, align 8
  %7 = load ptr, ptr %3, align 8
  %8 = getelementptr inbounds %struct.my_coef_controller, ptr %7, i32 0, i32 0
  %9 = getelementptr inbounds %struct.jpeg_d_coef_controller, ptr %8, i32 0, i32 4
  %10 = load ptr, ptr %9, align 8
  %11 = icmp ne ptr %10, null
  br i1 %11, label %12, label %30

12:                                               ; preds = %1
  %13 = load ptr, ptr %2, align 8
  %14 = getelementptr inbounds %struct.jpeg_decompress_struct, ptr %13, i32 0, i32 19
  %15 = load i32, ptr %14, align 8
  %16 = icmp ne i32 %15, 0
  br i1 %16, label %17, label %25

17:                                               ; preds = %12
  %18 = load ptr, ptr %2, align 8
  %19 = call i32 @smoothing_ok(ptr noundef %18)
  %20 = icmp ne i32 %19, 0
  br i1 %20, label %21, label %25

21:                                               ; preds = %17
  %22 = load ptr, ptr %3, align 8
  %23 = getelementptr inbounds %struct.my_coef_controller, ptr %22, i32 0, i32 0
  %24 = getelementptr inbounds %struct.jpeg_d_coef_controller, ptr %23, i32 0, i32 3
  store ptr @decompress_smooth_data, ptr %24, align 8
  br label %29

25:                                               ; preds = %17, %12
  %26 = load ptr, ptr %3, align 8
  %27 = getelementptr inbounds %struct.my_coef_controller, ptr %26, i32 0, i32 0
  %28 = getelementptr inbounds %struct.jpeg_d_coef_controller, ptr %27, i32 0, i32 3
  store ptr @decompress_data, ptr %28, align 8
  br label %29

29:                                               ; preds = %25, %21
  br label %30

30:                                               ; preds = %29, %1
  %31 = load ptr, ptr %2, align 8
  %32 = getelementptr inbounds %struct.jpeg_decompress_struct, ptr %31, i32 0, i32 38
  store i32 0, ptr %32, align 8
  ret void
}