; Function Attrs: nounwind uwtable
define internal void @start_output_pass(ptr noundef %0) #0 {
  %2 = getelementptr inbounds i8, ptr %0, i64 560
  %3 = load ptr, ptr %2, align 8
  %4 = getelementptr inbounds i8, ptr %3, i64 32
  %5 = load ptr, ptr %4, align 8
  %.not = icmp eq ptr %5, null
  br i1 %.not, label %77, label %6

6:                                                ; preds = %1
  %7 = getelementptr inbounds i8, ptr %0, i64 104
  %8 = load i32, ptr %7, align 8
  %.not7 = icmp eq i32 %8, 0
  br i1 %.not7, label %smoothing_ok.exit.thread, label %9

9:                                                ; preds = %6
  %10 = getelementptr inbounds i8, ptr %0, i64 312
  %11 = load i32, ptr %10, align 8
  %.not.i = icmp eq i32 %11, 0
  br i1 %.not.i, label %smoothing_ok.exit.thread, label %12

12:                                               ; preds = %9
  %13 = getelementptr inbounds i8, ptr %0, i64 192
  %14 = load ptr, ptr %13, align 8
  %15 = icmp eq ptr %14, null
  br i1 %15, label %smoothing_ok.exit.thread, label %16

16:                                               ; preds = %12
  %17 = getelementptr inbounds i8, ptr %3, i64 216
  %18 = load ptr, ptr %17, align 8
  %19 = icmp eq ptr %18, null
  br i1 %19, label %20, label %29

20:                                               ; preds = %16
  %21 = getelementptr inbounds i8, ptr %0, i64 8
  %22 = load ptr, ptr %21, align 8
  %23 = load ptr, ptr %22, align 8
  %24 = getelementptr inbounds i8, ptr %0, i64 56
  %25 = load i32, ptr %24, align 8
  %26 = sext i32 %25 to i64
  %27 = mul nsw i64 %26, 24
  %28 = tail call ptr %23(ptr noundef nonnull %0, i32 noundef 1, i64 noundef %27) #4
  store ptr %28, ptr %17, align 8
  br label %29

29:                                               ; preds = %20, %16
  %30 = phi ptr [ %28, %20 ], [ %18, %16 ]
  %31 = getelementptr inbounds i8, ptr %0, i64 56
  %32 = load i32, ptr %31, align 8
  %33 = icmp sgt i32 %32, 0
  br i1 %33, label %.lr.ph.preheader.i, label %smoothing_ok.exit.thread

.lr.ph.preheader.i:                               ; preds = %29
  %34 = getelementptr inbounds i8, ptr %0, i64 304
  %35 = load ptr, ptr %34, align 8
  br label %.lr.ph.i

.lr.ph.i:                                         ; preds = %70, %.lr.ph.preheader.i
  %indvars.iv64.i = phi i64 [ 0, %.lr.ph.preheader.i ], [ %indvars.iv.next65.i, %70 ]
  %.046.i = phi ptr [ %30, %.lr.ph.preheader.i ], [ %71, %70 ]
  %.03545.i = phi i32 [ 0, %.lr.ph.preheader.i ], [ %spec.select.i, %70 ]
  %.03644.i = phi ptr [ %35, %.lr.ph.preheader.i ], [ %72, %70 ]
  %36 = getelementptr inbounds i8, ptr %.03644.i, i64 80
  %37 = load ptr, ptr %36, align 8
  %38 = icmp eq ptr %37, null
  br i1 %38, label %smoothing_ok.exit.thread, label %39

39:                                               ; preds = %.lr.ph.i
  %40 = load i16, ptr %37, align 4
  %41 = icmp eq i16 %40, 0
  br i1 %41, label %smoothing_ok.exit.thread, label %42

42:                                               ; preds = %39
  %43 = getelementptr inbounds i8, ptr %37, i64 2
  %44 = load i16, ptr %43, align 2
  %45 = icmp eq i16 %44, 0
  br i1 %45, label %smoothing_ok.exit.thread, label %46

46:                                               ; preds = %42
  %47 = getelementptr inbounds i8, ptr %37, i64 16
  %48 = load i16, ptr %47, align 4
  %49 = icmp eq i16 %48, 0
  br i1 %49, label %smoothing_ok.exit.thread, label %50

50:                                               ; preds = %46
  %51 = getelementptr inbounds i8, ptr %37, i64 32
  %52 = load i16, ptr %51, align 4
  %53 = icmp eq i16 %52, 0
  br i1 %53, label %smoothing_ok.exit.thread, label %54

54:                                               ; preds = %50
  %55 = getelementptr inbounds i8, ptr %37, i64 18
  %56 = load i16, ptr %55, align 2
  %57 = icmp eq i16 %56, 0
  br i1 %57, label %smoothing_ok.exit.thread, label %58

58:                                               ; preds = %54
  %59 = getelementptr inbounds i8, ptr %37, i64 4
  %60 = load i16, ptr %59, align 4
  %61 = icmp eq i16 %60, 0
  br i1 %61, label %smoothing_ok.exit.thread, label %62

62:                                               ; preds = %58
  %63 = load ptr, ptr %13, align 8
  %64 = getelementptr inbounds [64 x i32], ptr %63, i64 %indvars.iv64.i
  %65 = load i32, ptr %64, align 4
  %66 = icmp slt i32 %65, 0
  br i1 %66, label %smoothing_ok.exit.thread, label %.preheader.i

.preheader.i:                                     ; preds = %62, %.preheader.i
  %indvars.iv.i = phi i64 [ %indvars.iv.next.i, %.preheader.i ], [ 1, %62 ]
  %.142.i = phi i32 [ %spec.select.i, %.preheader.i ], [ %.03545.i, %62 ]
  %67 = getelementptr inbounds i32, ptr %64, i64 %indvars.iv.i
  %68 = load i32, ptr %67, align 4
  %69 = getelementptr inbounds i32, ptr %.046.i, i64 %indvars.iv.i
  store i32 %68, ptr %69, align 4
  %.not40.i = icmp eq i32 %68, 0
  %spec.select.i = select i1 %.not40.i, i32 %.142.i, i32 1
  %indvars.iv.next.i = add nuw nsw i64 %indvars.iv.i, 1
  %exitcond.not.i = icmp eq i64 %indvars.iv.next.i, 6
  br i1 %exitcond.not.i, label %70, label %.preheader.i, !llvm.loop !9

70:                                               ; preds = %.preheader.i
  %71 = getelementptr inbounds i8, ptr %.046.i, i64 24
  %indvars.iv.next65.i = add nuw nsw i64 %indvars.iv64.i, 1
  %72 = getelementptr inbounds i8, ptr %.03644.i, i64 96
  %73 = load i32, ptr %31, align 8
  %74 = sext i32 %73 to i64
  %75 = icmp slt i64 %indvars.iv.next65.i, %74
  br i1 %75, label %.lr.ph.i, label %smoothing_ok.exit, !llvm.loop !10

smoothing_ok.exit:                                ; preds = %70
  %.not8 = icmp eq i32 %spec.select.i, 0
  br i1 %.not8, label %smoothing_ok.exit.thread, label %.sink.split

smoothing_ok.exit.thread:                         ; preds = %62, %39, %42, %46, %50, %54, %58, %.lr.ph.i, %29, %9, %12, %smoothing_ok.exit, %6
  br label %.sink.split

.sink.split:                                      ; preds = %smoothing_ok.exit, %smoothing_ok.exit.thread
  %decompress_smooth_data.sink = phi ptr [ @decompress_data, %smoothing_ok.exit.thread ], [ @decompress_smooth_data, %smoothing_ok.exit ]
  %76 = getelementptr inbounds i8, ptr %3, i64 24
  store ptr %decompress_smooth_data.sink, ptr %76, align 8
  br label %77

77:                                               ; preds = %.sink.split, %1
  %78 = getelementptr inbounds i8, ptr %0, i64 184
  store i32 0, ptr %78, align 8
  ret void
}